target datalayout = "e-m:e-p270:32:32-p271:32:32-p272:64:64-i64:64-i128:128-f80:128-n8:16:32:64-S128"
target triple = "x86_64-pc-linux-gnu"

%struct.Abc_Frame_t_ = type { ptr, ptr, ptr, ptr, ptr, ptr, ptr, ptr, ptr, ptr, i32, i32, i32, i32, i32, ptr, float, float, i32, i32, ptr, ptr, ptr, double, double, ptr, ptr, ptr, ptr, ptr, ptr, ptr, ptr, ptr, ptr, ptr, ptr, float, ptr, i32, ptr, ptr, ptr, ptr, ptr, i32, i32, i32, i32, i32, i32, ptr, ptr, ptr, ptr, ptr, ptr, i32, i32, ptr, ptr, ptr, ptr, ptr, ptr, ptr, ptr, ptr, ptr, ptr, ptr, ptr, ptr, ptr, ptr, ptr, ptr, ptr, ptr, ptr, ptr, ptr, ptr, ptr, ptr, ptr, ptr, ptr, ptr }
%struct.Abc_Ntk_t_ = type { i32, i32, ptr, ptr, ptr, ptr, ptr, ptr, ptr, ptr, ptr, ptr, ptr, [11 x i32], i32, i32, i32, i32, ptr, i32, ptr, ptr, i32, i32, i32, double, i32, %struct.Vec_Int_t_, ptr, ptr, ptr, ptr, ptr, float, i32, ptr, ptr, ptr, ptr, ptr, ptr, ptr, ptr, ptr, ptr, ptr, ptr, ptr, ptr, ptr, ptr, ptr, ptr, ptr, ptr, ptr, ptr }
%struct.Vec_Int_t_ = type { i32, i32, ptr }
%struct.Abc_Obj_t_ = type { ptr, ptr, i32, i32, %struct.Vec_Int_t_, %struct.Vec_Int_t_, %union.anon, %union.anon.0 }
%union.anon = type { ptr }
%union.anon.0 = type { ptr }
%struct.Vec_Ptr_t_ = type { i32, i32, ptr }

@globalUtilOptind = external global i32, align 4
@.str.113 = private unnamed_addr constant [4 x i8] c"yes\00", align 1
@.str.114 = private unnamed_addr constant [3 x i8] c"no\00", align 1
@.str.202 = private unnamed_addr constant [4 x i8] c"hex\00", align 1
@.str.203 = private unnamed_addr constant [4 x i8] c"bin\00", align 1
@.str.233 = private unnamed_addr constant [34 x i8] c"\09-h     : print the help massage\0A\00", align 1
@.str.234 = private unnamed_addr constant [41 x i8] c"\09file   : the name of the file to write\0A\00", align 1
@.str.297 = private unnamed_addr constant [36 x i8] c"Cannot open file \22%s\22 for writing.\0A\00", align 1
@.str.320 = private unnamed_addr constant [2 x i8] c"w\00", align 1
@.str.375 = private unnamed_addr constant [4 x i8] c"xrh\00", align 1
@.str.376 = private unnamed_addr constant [35 x i8] c"Current network is not available.\0A\00", align 1
@.str.377 = private unnamed_addr constant [49 x i8] c"Current network should not an AIG. Run \22logic\22.\0A\00", align 1
@.str.378 = private unnamed_addr constant [57 x i8] c"Current network should have exactly one primary output.\0A\00", align 1
@.str.379 = private unnamed_addr constant [47 x i8] c"Current network should have exactly one node.\0A\00", align 1
@.str.380 = private unnamed_addr constant [46 x i8] c"Can only write logic function with 0 inputs.\0A\00", align 1
@.str.381 = private unnamed_addr constant [60 x i8] c"Can only write logic function with no more than 16 inputs.\0A\00", align 1
@.str.382 = private unnamed_addr constant [34 x i8] c"usage: write_truth [-xrh] <file>\0A\00", align 1
@.str.383 = private unnamed_addr constant [42 x i8] c"\09         writes truth table into a file\0A\00", align 1
@.str.384 = private unnamed_addr constant [69 x i8] c"\09-x     : toggles between bin and hex representation [default = %s]\0A\00", align 1
@.str.385 = private unnamed_addr constant [67 x i8] c"\09-r     : toggle reversing bits in the truth table [default = %s]\0A\00", align 1

; Function Attrs: inlinehint nounwind uwtable
define internal ptr @Vec_PtrEntry(ptr noundef %0, i32 noundef %1) #3 {
  %3 = alloca ptr, align 8
  %4 = alloca i32, align 4
  store ptr %0, ptr %3, align 8, !tbaa !68
  store i32 %1, ptr %4, align 4, !tbaa !8
  %5 = load ptr, ptr %3, align 8, !tbaa !68
  %6 = getelementptr inbounds nuw %struct.Vec_Ptr_t_, ptr %5, i32 0, i32 2
  %7 = load ptr, ptr %6, align 8, !tbaa !150
  %8 = load i32, ptr %4, align 4, !tbaa !8
  %9 = sext i32 %8 to i64
  %10 = getelementptr inbounds ptr, ptr %7, i64 %9
  %11 = load ptr, ptr %10, align 8, !tbaa !152
  ret ptr %11
}

; Function Attrs: inlinehint nounwind uwtable
define internal i32 @Vec_PtrSize(ptr noundef %0) #3 {
  %2 = alloca ptr, align 8
  store ptr %0, ptr %2, align 8, !tbaa !68
  %3 = load ptr, ptr %2, align 8, !tbaa !68
  %4 = getelementptr inbounds nuw %struct.Vec_Ptr_t_, ptr %3, i32 0, i32 1
  %5 = load i32, ptr %4, align 4, !tbaa !131
  ret i32 %5
}

; Function Attrs: inlinehint nounwind uwtable
define internal i32 @Abc_ObjFaninNum(ptr noundef %0) #3 {
  %2 = alloca ptr, align 8
  store ptr %0, ptr %2, align 8, !tbaa !83
  %3 = load ptr, ptr %2, align 8, !tbaa !83
  %4 = getelementptr inbounds nuw %struct.Abc_Obj_t_, ptr %3, i32 0, i32 4
  %5 = getelementptr inbounds nuw %struct.Vec_Int_t_, ptr %4, i32 0, i32 1
  %6 = load i32, ptr %5, align 4, !tbaa !175
  ret i32 %6
}

; Function Attrs: inlinehint nounwind uwtable
define internal ptr @Abc_ObjFanin0(ptr noundef %0) #3 {
  %2 = alloca ptr, align 8
  store ptr %0, ptr %2, align 8, !tbaa !83
  %3 = load ptr, ptr %2, align 8, !tbaa !83
  %4 = getelementptr inbounds nuw %struct.Abc_Obj_t_, ptr %3, i32 0, i32 0
  %5 = load ptr, ptr %4, align 8, !tbaa !147
  %6 = getelementptr inbounds nuw %struct.Abc_Ntk_t_, ptr %5, i32 0, i32 5
  %7 = load ptr, ptr %6, align 8, !tbaa !149
  %8 = getelementptr inbounds nuw %struct.Vec_Ptr_t_, ptr %7, i32 0, i32 2
  %9 = load ptr, ptr %8, align 8, !tbaa !150
  %10 = load ptr, ptr %2, align 8, !tbaa !83
  %11 = getelementptr inbounds nuw %struct.Abc_Obj_t_, ptr %10, i32 0, i32 4
  %12 = getelementptr inbounds nuw %struct.Vec_Int_t_, ptr %11, i32 0, i32 2
  %13 = load ptr, ptr %12, align 8, !tbaa !174
  %14 = getelementptr inbounds i32, ptr %13, i64 0
  %15 = load i32, ptr %14, align 4, !tbaa !8
  %16 = sext i32 %15 to i64
  %17 = getelementptr inbounds ptr, ptr %9, i64 %16
  %18 = load ptr, ptr %17, align 8, !tbaa !152
  ret ptr %18
}

; Function Attrs: inlinehint nounwind uwtable
define internal ptr @Abc_NtkPo(ptr noundef %0, i32 noundef %1) #3 {
  %3 = alloca ptr, align 8
  %4 = alloca i32, align 4
  store ptr %0, ptr %3, align 8, !tbaa !18
  store i32 %1, ptr %4, align 4, !tbaa !8
  %5 = load ptr, ptr %3, align 8, !tbaa !18
  %6 = getelementptr inbounds nuw %struct.Abc_Ntk_t_, ptr %5, i32 0, i32 7
  %7 = load ptr, ptr %6, align 8, !tbaa !134
  %8 = load i32, ptr %4, align 4, !tbaa !8
  %9 = call ptr @Vec_PtrEntry(ptr noundef %7, i32 noundef %8)
  ret ptr %9
}

; Function Attrs: inlinehint nounwind uwtable
define internal i32 @Abc_NtkNodeNum(ptr noundef %0) #3 {
  %2 = alloca ptr, align 8
  store ptr %0, ptr %2, align 8, !tbaa !18
  %3 = load ptr, ptr %2, align 8, !tbaa !18
  %4 = getelementptr inbounds nuw %struct.Abc_Ntk_t_, ptr %3, i32 0, i32 13
  %5 = getelementptr inbounds [11 x i32], ptr %4, i64 0, i64 7
  %6 = load i32, ptr %5, align 4, !tbaa !8
  ret i32 %6
}

; Function Attrs: inlinehint nounwind uwtable
define internal i32 @Abc_NtkPoNum(ptr noundef %0) #3 {
  %2 = alloca ptr, align 8
  store ptr %0, ptr %2, align 8, !tbaa !18
  %3 = load ptr, ptr %2, align 8, !tbaa !18
  %4 = getelementptr inbounds nuw %struct.Abc_Ntk_t_, ptr %3, i32 0, i32 7
  %5 = load ptr, ptr %4, align 8, !tbaa !134
  %6 = call i32 @Vec_PtrSize(ptr noundef %5)
  ret i32 %6
}

; Function Attrs: inlinehint nounwind uwtable
define internal i32 @Abc_NtkIsLogic(ptr noundef %0) #3 {
  %2 = alloca ptr, align 8
  store ptr %0, ptr %2, align 8, !tbaa !18
  %3 = load ptr, ptr %2, align 8, !tbaa !18
  %4 = getelementptr inbounds nuw %struct.Abc_Ntk_t_, ptr %3, i32 0, i32 0
  %5 = load i32, ptr %4, align 8, !tbaa !171
  %6 = icmp eq i32 %5, 2
  %7 = zext i1 %6 to i32
  ret i32 %7
}

; Function Attrs: nounwind uwtable
define internal i32 @IoCommandWriteTruth(ptr noundef %0, i32 noundef %1, ptr noundef %2) #0 {
  %4 = alloca i32, align 4
  %5 = alloca ptr, align 8
  %6 = alloca i32, align 4
  %7 = alloca ptr, align 8
  %8 = alloca ptr, align 8
  %9 = alloca ptr, align 8
  %10 = alloca ptr, align 8
  %11 = alloca ptr, align 8
  %12 = alloca ptr, align 8
  %13 = alloca ptr, align 8
  %14 = alloca i32, align 4
  %15 = alloca i32, align 4
  %16 = alloca i32, align 4
  %17 = alloca i32, align 4
  store ptr %0, ptr %5, align 8, !tbaa !3
  store i32 %1, ptr %6, align 4, !tbaa !8
  store ptr %2, ptr %7, align 8, !tbaa !10
  call void @llvm.lifetime.start.p0(i64 8, ptr %8) #11
  call void @llvm.lifetime.start.p0(i64 8, ptr %9) #11
  %18 = load ptr, ptr %5, align 8, !tbaa !3
  %19 = getelementptr inbounds nuw %struct.Abc_Frame_t_, ptr %18, i32 0, i32 6
  %20 = load ptr, ptr %19, align 8, !tbaa !44
  store ptr %20, ptr %9, align 8, !tbaa !18
  call void @llvm.lifetime.start.p0(i64 8, ptr %10) #11
  call void @llvm.lifetime.start.p0(i64 8, ptr %11) #11
  call void @llvm.lifetime.start.p0(i64 8, ptr %12) #11
  call void @llvm.lifetime.start.p0(i64 8, ptr %13) #11
  call void @llvm.lifetime.start.p0(i64 4, ptr %14) #11
  store i32 1, ptr %14, align 4, !tbaa !8
  call void @llvm.lifetime.start.p0(i64 4, ptr %15) #11
  store i32 0, ptr %15, align 4, !tbaa !8
  call void @llvm.lifetime.start.p0(i64 4, ptr %16) #11
  call void (...) @Extra_UtilGetoptReset()
  br label %21

21:                                               ; preds = %36, %3
  %22 = load i32, ptr %6, align 4, !tbaa !8
  %23 = load ptr, ptr %7, align 8, !tbaa !10
  %24 = call i32 @Extra_UtilGetopt(i32 noundef %22, ptr noundef %23, ptr noundef @.str.375)
  store i32 %24, ptr %16, align 4, !tbaa !8
  %25 = icmp ne i32 %24, -1
  br i1 %25, label %26, label %37

26:                                               ; preds = %21
  %27 = load i32, ptr %16, align 4, !tbaa !8
  switch i32 %27, label %35 [
    i32 120, label %28
    i32 114, label %31
    i32 104, label %34
  ]

28:                                               ; preds = %26
  %29 = load i32, ptr %14, align 4, !tbaa !8
  %30 = xor i32 %29, 1
  store i32 %30, ptr %14, align 4, !tbaa !8
  br label %36

31:                                               ; preds = %26
  %32 = load i32, ptr %15, align 4, !tbaa !8
  %33 = xor i32 %32, 1
  store i32 %33, ptr %15, align 4, !tbaa !8
  br label %36

34:                                               ; preds = %26
  br label %129

35:                                               ; preds = %26
  br label %129

36:                                               ; preds = %31, %28
  br label %21, !llvm.loop !93

37:                                               ; preds = %21
  %38 = load ptr, ptr %5, align 8, !tbaa !3
  %39 = getelementptr inbounds nuw %struct.Abc_Frame_t_, ptr %38, i32 0, i32 6
  %40 = load ptr, ptr %39, align 8, !tbaa !44
  %41 = icmp eq ptr %40, null
  br i1 %41, label %42, label %44

42:                                               ; preds = %37
  %43 = call i32 (ptr, ...) @printf(ptr noundef @.str.376)
  store i32 0, ptr %4, align 4
  store i32 1, ptr %17, align 4
  br label %160

44:                                               ; preds = %37
  %45 = load ptr, ptr %9, align 8, !tbaa !18
  %46 = call i32 @Abc_NtkIsLogic(ptr noundef %45)
  %47 = icmp ne i32 %46, 0
  br i1 %47, label %50, label %48

48:                                               ; preds = %44
  %49 = call i32 (ptr, ...) @printf(ptr noundef @.str.377)
  store i32 0, ptr %4, align 4
  store i32 1, ptr %17, align 4
  br label %160

50:                                               ; preds = %44
  %51 = load ptr, ptr %9, align 8, !tbaa !18
  %52 = call i32 @Abc_NtkPoNum(ptr noundef %51)
  %53 = icmp ne i32 %52, 1
  br i1 %53, label %54, label %56

54:                                               ; preds = %50
  %55 = call i32 (ptr, ...) @printf(ptr noundef @.str.378)
  store i32 0, ptr %4, align 4
  store i32 1, ptr %17, align 4
  br label %160

56:                                               ; preds = %50
  %57 = load ptr, ptr %9, align 8, !tbaa !18
  %58 = call i32 @Abc_NtkNodeNum(ptr noundef %57)
  %59 = icmp ne i32 %58, 1
  br i1 %59, label %60, label %62

60:                                               ; preds = %56
  %61 = call i32 (ptr, ...) @printf(ptr noundef @.str.379)
  store i32 0, ptr %4, align 4
  store i32 1, ptr %17, align 4
  br label %160

62:                                               ; preds = %56
  %63 = load ptr, ptr %9, align 8, !tbaa !18
  %64 = call ptr @Abc_NtkPo(ptr noundef %63, i32 noundef 0)
  %65 = call ptr @Abc_ObjFanin0(ptr noundef %64)
  store ptr %65, ptr %10, align 8, !tbaa !83
  %66 = load ptr, ptr %10, align 8, !tbaa !83
  %67 = call i32 @Abc_ObjFaninNum(ptr noundef %66)
  %68 = icmp eq i32 %67, 0
  br i1 %68, label %69, label %71

69:                                               ; preds = %62
  %70 = call i32 (ptr, ...) @printf(ptr noundef @.str.380)
  store i32 0, ptr %4, align 4
  store i32 1, ptr %17, align 4
  br label %160

71:                                               ; preds = %62
  %72 = load ptr, ptr %10, align 8, !tbaa !83
  %73 = call i32 @Abc_ObjFaninNum(ptr noundef %72)
  %74 = icmp sgt i32 %73, 16
  br i1 %74, label %75, label %77

75:                                               ; preds = %71
  %76 = call i32 (ptr, ...) @printf(ptr noundef @.str.381)
  store i32 0, ptr %4, align 4
  store i32 1, ptr %17, align 4
  br label %160

77:                                               ; preds = %71
  %78 = load i32, ptr %6, align 4, !tbaa !8
  %79 = load i32, ptr @globalUtilOptind, align 4, !tbaa !8
  %80 = add nsw i32 %79, 1
  %81 = icmp ne i32 %78, %80
  br i1 %81, label %82, label %83

82:                                               ; preds = %77
  br label %129

83:                                               ; preds = %77
  %84 = load ptr, ptr %7, align 8, !tbaa !10
  %85 = load i32, ptr @globalUtilOptind, align 4, !tbaa !8
  %86 = sext i32 %85 to i64
  %87 = getelementptr inbounds ptr, ptr %84, i64 %86
  %88 = load ptr, ptr %87, align 8, !tbaa !14
  store ptr %88, ptr %11, align 8, !tbaa !14
  %89 = load ptr, ptr %9, align 8, !tbaa !18
  %90 = call i32 @Abc_NtkToAig(ptr noundef %89)
  %91 = call ptr @Vec_IntAlloc(i32 noundef 0)
  store ptr %91, ptr %8, align 8, !tbaa !94
  %92 = load ptr, ptr %9, align 8, !tbaa !18
  %93 = getelementptr inbounds nuw %struct.Abc_Ntk_t_, ptr %92, i32 0, i32 30
  %94 = load ptr, ptr %93, align 8, !tbaa !95
  %95 = load ptr, ptr %10, align 8, !tbaa !83
  %96 = getelementptr inbounds nuw %struct.Abc_Obj_t_, ptr %95, i32 0, i32 6
  %97 = load ptr, ptr %96, align 8, !tbaa !16
  %98 = load ptr, ptr %10, align 8, !tbaa !83
  %99 = call i32 @Abc_ObjFaninNum(ptr noundef %98)
  %100 = load ptr, ptr %8, align 8, !tbaa !94
  %101 = load i32, ptr %15, align 4, !tbaa !8
  %102 = call ptr @Hop_ManConvertAigToTruth(ptr noundef %94, ptr noundef %97, i32 noundef %99, ptr noundef %100, i32 noundef %101)
  store ptr %102, ptr %13, align 8, !tbaa !96
  %103 = load ptr, ptr %11, align 8, !tbaa !14
  %104 = call noalias ptr @fopen(ptr noundef %103, ptr noundef @.str.320)
  store ptr %104, ptr %12, align 8, !tbaa !22
  %105 = load ptr, ptr %12, align 8, !tbaa !22
  %106 = icmp eq ptr %105, null
  br i1 %106, label %107, label %111

107:                                              ; preds = %83
  %108 = load ptr, ptr %8, align 8, !tbaa !94
  call void @Vec_IntFree(ptr noundef %108)
  %109 = load ptr, ptr %11, align 8, !tbaa !14
  %110 = call i32 (ptr, ...) @printf(ptr noundef @.str.297, ptr noundef %109)
  store i32 0, ptr %4, align 4
  store i32 1, ptr %17, align 4
  br label %160

111:                                              ; preds = %83
  %112 = load i32, ptr %14, align 4, !tbaa !8
  %113 = icmp ne i32 %112, 0
  br i1 %113, label %114, label %119

114:                                              ; preds = %111
  %115 = load ptr, ptr %12, align 8, !tbaa !22
  %116 = load ptr, ptr %13, align 8, !tbaa !96
  %117 = load ptr, ptr %10, align 8, !tbaa !83
  %118 = call i32 @Abc_ObjFaninNum(ptr noundef %117)
  call void @Extra_PrintHex2(ptr noundef %115, ptr noundef %116, i32 noundef %118)
  br label %125

119:                                              ; preds = %111
  %120 = load ptr, ptr %12, align 8, !tbaa !22
  %121 = load ptr, ptr %13, align 8, !tbaa !96
  %122 = load ptr, ptr %10, align 8, !tbaa !83
  %123 = call i32 @Abc_ObjFaninNum(ptr noundef %122)
  %124 = shl i32 1, %123
  call void @Extra_PrintBinary(ptr noundef %120, ptr noundef %121, i32 noundef %124)
  br label %125

125:                                              ; preds = %119, %114
  %126 = load ptr, ptr %12, align 8, !tbaa !22
  %127 = call i32 @fclose(ptr noundef %126)
  %128 = load ptr, ptr %8, align 8, !tbaa !94
  call void @Vec_IntFree(ptr noundef %128)
  store i32 0, ptr %4, align 4
  store i32 1, ptr %17, align 4
  br label %160

129:                                              ; preds = %82, %35, %34
  %130 = load ptr, ptr %5, align 8, !tbaa !3
  %131 = getelementptr inbounds nuw %struct.Abc_Frame_t_, ptr %130, i32 0, i32 21
  %132 = load ptr, ptr %131, align 8, !tbaa !24
  %133 = call i32 (ptr, ptr, ...) @fprintf(ptr noundef %132, ptr noundef @.str.382) #11
  %134 = load ptr, ptr %5, align 8, !tbaa !3
  %135 = getelementptr inbounds nuw %struct.Abc_Frame_t_, ptr %134, i32 0, i32 21
  %136 = load ptr, ptr %135, align 8, !tbaa !24
  %137 = call i32 (ptr, ptr, ...) @fprintf(ptr noundef %136, ptr noundef @.str.383) #11
  %138 = load ptr, ptr %5, align 8, !tbaa !3
  %139 = getelementptr inbounds nuw %struct.Abc_Frame_t_, ptr %138, i32 0, i32 21
  %140 = load ptr, ptr %139, align 8, !tbaa !24
  %141 = load i32, ptr %14, align 4, !tbaa !8
  %142 = icmp ne i32 %141, 0
  %143 = select i1 %142, ptr @.str.202, ptr @.str.203
  %144 = call i32 (ptr, ptr, ...) @fprintf(ptr noundef %140, ptr noundef @.str.384, ptr noundef %143) #11
  %145 = load ptr, ptr %5, align 8, !tbaa !3
  %146 = getelementptr inbounds nuw %struct.Abc_Frame_t_, ptr %145, i32 0, i32 21
  %147 = load ptr, ptr %146, align 8, !tbaa !24
  %148 = load i32, ptr %15, align 4, !tbaa !8
  %149 = icmp ne i32 %148, 0
  %150 = select i1 %149, ptr @.str.113, ptr @.str.114
  %151 = call i32 (ptr, ptr, ...) @fprintf(ptr noundef %147, ptr noundef @.str.385, ptr noundef %150) #11
  %152 = load ptr, ptr %5, align 8, !tbaa !3
  %153 = getelementptr inbounds nuw %struct.Abc_Frame_t_, ptr %152, i32 0, i32 21
  %154 = load ptr, ptr %153, align 8, !tbaa !24
  %155 = call i32 (ptr, ptr, ...) @fprintf(ptr noundef %154, ptr noundef @.str.233) #11
  %156 = load ptr, ptr %5, align 8, !tbaa !3
  %157 = getelementptr inbounds nuw %struct.Abc_Frame_t_, ptr %156, i32 0, i32 21
  %158 = load ptr, ptr %157, align 8, !tbaa !24
  %159 = call i32 (ptr, ptr, ...) @fprintf(ptr noundef %158, ptr noundef @.str.234) #11
  store i32 1, ptr %4, align 4
  store i32 1, ptr %17, align 4
  br label %160

160:                                              ; preds = %129, %125, %107, %75, %69, %60, %54, %48, %42
  call void @llvm.lifetime.end.p0(i64 4, ptr %16) #11
  call void @llvm.lifetime.end.p0(i64 4, ptr %15) #11
  call void @llvm.lifetime.end.p0(i64 4, ptr %14) #11
  call void @llvm.lifetime.end.p0(i64 8, ptr %13) #11
  call void @llvm.lifetime.end.p0(i64 8, ptr %12) #11
  call void @llvm.lifetime.end.p0(i64 8, ptr %11) #11
  call void @llvm.lifetime.end.p0(i64 8, ptr %10) #11
  call void @llvm.lifetime.end.p0(i64 8, ptr %9) #11
  call void @llvm.lifetime.end.p0(i64 8, ptr %8) #11
  %161 = load i32, ptr %4, align 4
  ret i32 %161
}