; Function Attrs: nounwind uwtable
define internal range(i32 0, 2) i32 @IoCommandWriteTruth(ptr noundef readonly captures(none) %0, i32 noundef %1, ptr noundef %2) #0 {
  %4 = getelementptr inbounds nuw i8, ptr %0, i64 48
  %5 = load ptr, ptr %4, align 8, !tbaa !49
  tail call void (...) @Extra_UtilGetoptReset() #18
  br label %.outer

.outer:                                           ; preds = %8, %3
  %.043.ph = phi i32 [ %9, %8 ], [ 1, %3 ]
  %.042.ph = phi i32 [ %.042, %8 ], [ 0, %3 ]
  br label %6

6:                                                ; preds = %.outer, %10
  %.042 = phi i32 [ %11, %10 ], [ %.042.ph, %.outer ]
  %7 = tail call i32 @Extra_UtilGetopt(i32 noundef %1, ptr noundef %2, ptr noundef nonnull @.str.375) #18
  switch i32 %7, label %.loopexit [
    i32 -1, label %12
    i32 120, label %8
    i32 114, label %10
  ]

8:                                                ; preds = %6
  %9 = xor i32 %.043.ph, 1
  br label %.outer, !llvm.loop !103

10:                                               ; preds = %6
  %11 = xor i32 %.042, 1
  br label %6, !llvm.loop !103

12:                                               ; preds = %6
  %13 = load ptr, ptr %4, align 8, !tbaa !49
  %14 = icmp eq ptr %13, null
  br i1 %14, label %15, label %16

15:                                               ; preds = %12
  %puts56 = tail call i32 @puts(ptr nonnull dereferenceable(1) @str.11)
  br label %78

16:                                               ; preds = %12
  %.val = load i32, ptr %5, align 8, !tbaa !74
  %.not = icmp eq i32 %.val, 2
  br i1 %.not, label %18, label %17

17:                                               ; preds = %16
  %puts = tail call i32 @puts(ptr nonnull dereferenceable(1) @str.6)
  br label %78

18:                                               ; preds = %16
  %19 = getelementptr i8, ptr %5, i64 48
  %.val59 = load ptr, ptr %19, align 8, !tbaa !104
  %20 = getelementptr i8, ptr %.val59, i64 4
  %.val59.val = load i32, ptr %20, align 4, !tbaa !32
  %.not48 = icmp eq i32 %.val59.val, 1
  br i1 %.not48, label %22, label %21

21:                                               ; preds = %18
  %puts55 = tail call i32 @puts(ptr nonnull dereferenceable(1) @str.10)
  br label %78

22:                                               ; preds = %18
  %23 = getelementptr i8, ptr %5, i64 124
  %.val60 = load i32, ptr %23, align 4, !tbaa !3
  %.not49 = icmp eq i32 %.val60, 1
  br i1 %.not49, label %25, label %24

24:                                               ; preds = %22
  %puts54 = tail call i32 @puts(ptr nonnull dereferenceable(1) @str.9)
  br label %78

25:                                               ; preds = %22
  %26 = getelementptr i8, ptr %.val59, i64 8
  %.val61.val = load ptr, ptr %26, align 8, !tbaa !65
  %.val61.val.val = load ptr, ptr %.val61.val, align 8, !tbaa !66
  %.val62 = load ptr, ptr %.val61.val.val, align 8, !tbaa !105
  %27 = getelementptr i8, ptr %.val61.val.val, i64 32
  %.val63 = load ptr, ptr %27, align 8, !tbaa !108
  %28 = getelementptr i8, ptr %.val62, i64 32
  %.val62.val = load ptr, ptr %28, align 8, !tbaa !109
  %.val63.val = load i32, ptr %.val63, align 4, !tbaa !3
  %29 = getelementptr i8, ptr %.val62.val, i64 8
  %.val62.val.val = load ptr, ptr %29, align 8, !tbaa !65
  %30 = sext i32 %.val63.val to i64
  %31 = getelementptr inbounds ptr, ptr %.val62.val.val, i64 %30
  %32 = load ptr, ptr %31, align 8, !tbaa !66
  %33 = getelementptr i8, ptr %32, i64 28
  %.val64 = load i32, ptr %33, align 4, !tbaa !110
  %34 = icmp eq i32 %.val64, 0
  br i1 %34, label %35, label %36

35:                                               ; preds = %25
  %puts53 = tail call i32 @puts(ptr nonnull dereferenceable(1) @str.8)
  br label %78

36:                                               ; preds = %25
  %37 = icmp sgt i32 %.val64, 16
  br i1 %37, label %38, label %39

38:                                               ; preds = %36
  %puts52 = tail call i32 @puts(ptr nonnull dereferenceable(1) @str.7)
  br label %78

39:                                               ; preds = %36
  %40 = load i32, ptr @globalUtilOptind, align 4, !tbaa !3
  %41 = add nsw i32 %40, 1
  %.not50 = icmp eq i32 %1, %41
  br i1 %.not50, label %42, label %.loopexit

42:                                               ; preds = %39
  %43 = sext i32 %40 to i64
  %44 = getelementptr inbounds ptr, ptr %2, i64 %43
  %45 = load ptr, ptr %44, align 8, !tbaa !9
  %46 = tail call i32 @Abc_NtkToAig(ptr noundef nonnull %5) #18
  %47 = tail call fastcc ptr @Vec_IntAlloc(i32 noundef 0)
  %48 = getelementptr inbounds nuw i8, ptr %5, i64 256
  %49 = load ptr, ptr %48, align 8, !tbaa !111
  %50 = getelementptr inbounds nuw i8, ptr %32, i64 56
  %51 = load ptr, ptr %50, align 8, !tbaa !12
  %.val66 = load i32, ptr %33, align 4, !tbaa !110
  %52 = tail call ptr @Hop_ManConvertAigToTruth(ptr noundef %49, ptr noundef %51, i32 noundef %.val66, ptr noundef %47, i32 noundef %.042) #18
  %53 = tail call noalias ptr @fopen(ptr noundef %45, ptr noundef nonnull @.str.320)
  %54 = icmp eq ptr %53, null
  br i1 %54, label %55, label %57

55:                                               ; preds = %42
  tail call fastcc void @Vec_IntFree(ptr noundef %47)
  %56 = tail call i32 (ptr, ...) @printf(ptr noundef nonnull dereferenceable(1) @.str.297, ptr noundef %45)
  br label %78

57:                                               ; preds = %42
  %.not51 = icmp eq i32 %.043.ph, 0
  %.val68 = load i32, ptr %33, align 4, !tbaa !110
  br i1 %.not51, label %59, label %58

58:                                               ; preds = %57
  tail call void @Extra_PrintHex2(ptr noundef nonnull %53, ptr noundef %52, i32 noundef %.val68) #18
  br label %61

59:                                               ; preds = %57
  %60 = shl nuw i32 1, %.val68
  tail call void @Extra_PrintBinary(ptr noundef nonnull %53, ptr noundef %52, i32 noundef %60) #18
  br label %61

61:                                               ; preds = %59, %58
  %62 = tail call i32 @fclose(ptr noundef nonnull %53)
  tail call fastcc void @Vec_IntFree(ptr noundef %47)
  br label %78

.loopexit:                                        ; preds = %6, %39
  %63 = getelementptr inbounds nuw i8, ptr %0, i64 136
  %64 = load ptr, ptr %63, align 8, !tbaa !34
  %65 = tail call i64 @fwrite(ptr nonnull @.str.382, i64 33, i64 1, ptr %64)
  %66 = load ptr, ptr %63, align 8, !tbaa !34
  %67 = tail call i64 @fwrite(ptr nonnull @.str.383, i64 41, i64 1, ptr %66)
  %68 = load ptr, ptr %63, align 8, !tbaa !34
  %.not57 = icmp eq i32 %.043.ph, 0
  %69 = select i1 %.not57, ptr @.str.203, ptr @.str.202
  %70 = tail call i32 (ptr, ptr, ...) @fprintf(ptr noundef %68, ptr noundef nonnull @.str.384, ptr noundef nonnull %69) #18
  %71 = load ptr, ptr %63, align 8, !tbaa !34
  %.not58 = icmp eq i32 %.042, 0
  %72 = select i1 %.not58, ptr @.str.114, ptr @.str.113
  %73 = tail call i32 (ptr, ptr, ...) @fprintf(ptr noundef %71, ptr noundef nonnull @.str.385, ptr noundef nonnull %72) #18
  %74 = load ptr, ptr %63, align 8, !tbaa !34
  %75 = tail call i64 @fwrite(ptr nonnull @.str.233, i64 33, i64 1, ptr %74)
  %76 = load ptr, ptr %63, align 8, !tbaa !34
  %77 = tail call i64 @fwrite(ptr nonnull @.str.234, i64 40, i64 1, ptr %76)
  br label %78

78:                                               ; preds = %.loopexit, %61, %55, %38, %35, %24, %21, %17, %15
  %.0 = phi i32 [ 1, %.loopexit ], [ 0, %15 ], [ 0, %21 ], [ 0, %24 ], [ 0, %35 ], [ 0, %38 ], [ 0, %55 ], [ 0, %61 ], [ 0, %17 ]
  ret i32 %.0
}